target datalayout = "e-m:e-p270:32:32-p271:32:32-p272:64:64-i64:64-i128:128-f80:128-n8:16:32:64-S128"
target triple = "x86_64-pc-linux-gnu"

%struct.lv_ll_t = type { i32, ptr, ptr }
%struct.lv_sdl_window_t = type { ptr, ptr, ptr, ptr, ptr, ptr, ptr, ptr, ptr, i64, float, i8 }
%struct._lv_display_t = type { i32, i32, i32, i32, i32, i32, i32, ptr, ptr, ptr, ptr, ptr, i32, i32, i8, i32, i16, i32, [32 x %struct.lv_area_t], [32 x i8], i32, i32, %struct.lv_ll_t, %struct._lv_draw_buf_t, %struct._lv_draw_buf_t, ptr, ptr, ptr, ptr, ptr, ptr, ptr, ptr, ptr, ptr, i32, i8, ptr, ptr, %struct.lv_event_list_t, i8, ptr, ptr, i32, %struct.lv_area_t }
%struct._lv_draw_buf_t = type { %struct.lv_image_header_t, i32, ptr, ptr, ptr }
%struct.lv_image_header_t = type <{ i64, i32 }>
%struct.lv_event_list_t = type { %struct._lv_array_t, i8 }
%struct._lv_array_t = type { ptr, i32, i32, i32, i8 }
%struct.lv_area_t = type { i32, i32, i32, i32 }
%union.SDL_Event = type { %struct.SDL_TouchFingerEvent, [8 x i8] }
%struct.SDL_TouchFingerEvent = type { i32, i32, i64, i64, float, float, float, float, float, i32 }
%struct.SDL_WindowEvent = type { i32, i32, i32, i8, i8, i8, i8, i32, i32 }

@inited = internal global i8 0, align 1

; Function Attrs: nounwind uwtable
define internal void @window_update(ptr noundef %0) #0 {
  %2 = alloca ptr, align 8
  %3 = alloca ptr, align 8
  %4 = alloca i32, align 4
  %5 = alloca i32, align 4
  store ptr %0, ptr %2, align 8, !tbaa !11
  call void @llvm.lifetime.start.p0(i64 8, ptr %3) #8
  %6 = load ptr, ptr %2, align 8, !tbaa !11
  %7 = call ptr @lv_display_get_driver_data(ptr noundef %6)
  store ptr %7, ptr %3, align 8, !tbaa !11
  call void @llvm.lifetime.start.p0(i64 4, ptr %4) #8
  %8 = load ptr, ptr %2, align 8, !tbaa !11
  %9 = getelementptr inbounds nuw %struct._lv_display_t, ptr %8, i32 0, i32 0
  %10 = load i32, ptr %9, align 8, !tbaa !18
  store i32 %10, ptr %4, align 4, !tbaa !3
  call void @llvm.lifetime.start.p0(i64 4, ptr %5) #8
  %11 = load i32, ptr %4, align 4, !tbaa !3
  %12 = load ptr, ptr %2, align 8, !tbaa !11
  %13 = call i32 @lv_display_get_color_format(ptr noundef %12)
  %14 = call i32 @lv_draw_buf_width_to_stride(i32 noundef %11, i32 noundef %13)
  store i32 %14, ptr %5, align 4, !tbaa !3
  %15 = load ptr, ptr %3, align 8, !tbaa !11
  %16 = getelementptr inbounds nuw %struct.lv_sdl_window_t, ptr %15, i32 0, i32 2
  %17 = load ptr, ptr %16, align 8, !tbaa !43
  %18 = load ptr, ptr %3, align 8, !tbaa !11
  %19 = getelementptr inbounds nuw %struct.lv_sdl_window_t, ptr %18, i32 0, i32 5
  %20 = load ptr, ptr %19, align 8, !tbaa !47
  %21 = load i32, ptr %5, align 4, !tbaa !3
  %22 = call i32 @SDL_UpdateTexture(ptr noundef %17, ptr noundef null, ptr noundef %20, i32 noundef %21)
  %23 = load ptr, ptr %3, align 8, !tbaa !11
  %24 = getelementptr inbounds nuw %struct.lv_sdl_window_t, ptr %23, i32 0, i32 1
  %25 = load ptr, ptr %24, align 8, !tbaa !44
  %26 = call i32 @SDL_RenderClear(ptr noundef %25)
  %27 = load ptr, ptr %3, align 8, !tbaa !11
  %28 = getelementptr inbounds nuw %struct.lv_sdl_window_t, ptr %27, i32 0, i32 1
  %29 = load ptr, ptr %28, align 8, !tbaa !44
  %30 = load ptr, ptr %3, align 8, !tbaa !11
  %31 = getelementptr inbounds nuw %struct.lv_sdl_window_t, ptr %30, i32 0, i32 2
  %32 = load ptr, ptr %31, align 8, !tbaa !43
  %33 = call i32 @SDL_RenderCopy(ptr noundef %29, ptr noundef %32, ptr noundef null, ptr noundef null)
  %34 = load ptr, ptr %3, align 8, !tbaa !11
  %35 = getelementptr inbounds nuw %struct.lv_sdl_window_t, ptr %34, i32 0, i32 1
  %36 = load ptr, ptr %35, align 8, !tbaa !44
  call void @SDL_RenderPresent(ptr noundef %36)
  call void @llvm.lifetime.end.p0(i64 4, ptr %5) #8
  call void @llvm.lifetime.end.p0(i64 4, ptr %4) #8
  call void @llvm.lifetime.end.p0(i64 8, ptr %3) #8
  ret void
}

; Function Attrs: nounwind uwtable
define ptr @lv_sdl_get_disp_from_win_id(i32 noundef %0) #0 {
  %2 = alloca ptr, align 8
  %3 = alloca i32, align 4
  %4 = alloca ptr, align 8
  %5 = alloca i32, align 4
  %6 = alloca ptr, align 8
  store i32 %0, ptr %3, align 4, !tbaa !3
  call void @llvm.lifetime.start.p0(i64 8, ptr %4) #8
  %7 = call ptr @lv_display_get_next(ptr noundef null)
  store ptr %7, ptr %4, align 8, !tbaa !11
  %8 = load i32, ptr %3, align 4, !tbaa !3
  %9 = icmp eq i32 %8, -1
  br i1 %9, label %10, label %12

10:                                               ; preds = %1
  %11 = load ptr, ptr %4, align 8, !tbaa !11
  store ptr %11, ptr %2, align 8
  store i32 1, ptr %5, align 4
  br label %37

12:                                               ; preds = %1
  br label %13

13:                                               ; preds = %35, %12
  %14 = load ptr, ptr %4, align 8, !tbaa !11
  %15 = icmp ne ptr %14, null
  br i1 %15, label %16, label %36

16:                                               ; preds = %13
  call void @llvm.lifetime.start.p0(i64 8, ptr %6) #8
  %17 = load ptr, ptr %4, align 8, !tbaa !11
  %18 = call ptr @lv_display_get_driver_data(ptr noundef %17)
  store ptr %18, ptr %6, align 8, !tbaa !11
  %19 = load ptr, ptr %6, align 8, !tbaa !11
  %20 = icmp ne ptr %19, null
  br i1 %20, label %21, label %30

21:                                               ; preds = %16
  %22 = load ptr, ptr %6, align 8, !tbaa !11
  %23 = getelementptr inbounds nuw %struct.lv_sdl_window_t, ptr %22, i32 0, i32 0
  %24 = load ptr, ptr %23, align 8, !tbaa !45
  %25 = call i32 @SDL_GetWindowID(ptr noundef %24)
  %26 = load i32, ptr %3, align 4, !tbaa !3
  %27 = icmp eq i32 %25, %26
  br i1 %27, label %28, label %30

28:                                               ; preds = %21
  %29 = load ptr, ptr %4, align 8, !tbaa !11
  store ptr %29, ptr %2, align 8
  store i32 1, ptr %5, align 4
  br label %33

30:                                               ; preds = %21, %16
  %31 = load ptr, ptr %4, align 8, !tbaa !11
  %32 = call ptr @lv_display_get_next(ptr noundef %31)
  store ptr %32, ptr %4, align 8, !tbaa !11
  store i32 0, ptr %5, align 4
  br label %33

33:                                               ; preds = %30, %28
  call void @llvm.lifetime.end.p0(i64 8, ptr %6) #8
  %34 = load i32, ptr %5, align 4
  switch i32 %34, label %37 [
    i32 0, label %35
  ]

35:                                               ; preds = %33
  br label %13, !llvm.loop !54

36:                                               ; preds = %13
  store ptr null, ptr %2, align 8
  store i32 1, ptr %5, align 4
  br label %37

37:                                               ; preds = %36, %33, %10
  call void @llvm.lifetime.end.p0(i64 8, ptr %4) #8
  %38 = load ptr, ptr %2, align 8
  ret ptr %38
}

; Function Attrs: nounwind uwtable
define internal void @sdl_event_handler(ptr noundef %0) #0 {
  %2 = alloca ptr, align 8
  %3 = alloca %union.SDL_Event, align 8
  %4 = alloca ptr, align 8
  %5 = alloca i32, align 4
  %6 = alloca ptr, align 8
  %7 = alloca i32, align 4
  %8 = alloca i32, align 4
  store ptr %0, ptr %2, align 8, !tbaa !11
  call void @llvm.lifetime.start.p0(i64 56, ptr %3) #8
  br label %9

9:                                                ; preds = %66, %59, %1
  %10 = call i32 @SDL_PollEvent(ptr noundef %3)
  %11 = icmp ne i32 %10, 0
  br i1 %11, label %12, label %67

12:                                               ; preds = %9
  call void @lv_sdl_mouse_handler(ptr noundef %3)
  call void @lv_sdl_mousewheel_handler(ptr noundef %3)
  call void @lv_sdl_keyboard_handler(ptr noundef %3)
  %13 = load i32, ptr %3, align 8, !tbaa !29
  %14 = icmp eq i32 %13, 512
  br i1 %14, label %15, label %62

15:                                               ; preds = %12
  call void @llvm.lifetime.start.p0(i64 8, ptr %4) #8
  %16 = getelementptr inbounds nuw %struct.SDL_WindowEvent, ptr %3, i32 0, i32 2
  %17 = load i32, ptr %16, align 8, !tbaa !29
  %18 = call ptr @lv_sdl_get_disp_from_win_id(i32 noundef %17)
  store ptr %18, ptr %4, align 8, !tbaa !11
  %19 = load ptr, ptr %4, align 8, !tbaa !11
  %20 = icmp eq ptr %19, null
  br i1 %20, label %21, label %22

21:                                               ; preds = %15
  store i32 2, ptr %5, align 4
  br label %59, !llvm.loop !30

22:                                               ; preds = %15
  call void @llvm.lifetime.start.p0(i64 8, ptr %6) #8
  %23 = load ptr, ptr %4, align 8, !tbaa !11
  %24 = call ptr @lv_display_get_driver_data(ptr noundef %23)
  store ptr %24, ptr %6, align 8, !tbaa !11
  %25 = getelementptr inbounds nuw %struct.SDL_WindowEvent, ptr %3, i32 0, i32 3
  %26 = load i8, ptr %25, align 4, !tbaa !29
  %27 = zext i8 %26 to i32
  switch i32 %27, label %57 [
    i32 15, label %28
    i32 3, label %28
    i32 5, label %30
    i32 14, label %55
  ]

28:                                               ; preds = %22, %22
  %29 = load ptr, ptr %4, align 8, !tbaa !11
  call void @window_update(ptr noundef %29)
  br label %58

30:                                               ; preds = %22
  %31 = load ptr, ptr %6, align 8, !tbaa !11
  %32 = getelementptr inbounds nuw %struct.lv_sdl_window_t, ptr %31, i32 0, i32 11
  store i8 1, ptr %32, align 4, !tbaa !32
  %33 = getelementptr inbounds nuw %struct.SDL_WindowEvent, ptr %3, i32 0, i32 7
  %34 = load i32, ptr %33, align 8, !tbaa !29
  %35 = sitofp i32 %34 to float
  %36 = load ptr, ptr %6, align 8, !tbaa !11
  %37 = getelementptr inbounds nuw %struct.lv_sdl_window_t, ptr %36, i32 0, i32 10
  %38 = load float, ptr %37, align 8, !tbaa !33
  %39 = fdiv float %35, %38
  %40 = fptosi float %39 to i32
  store i32 %40, ptr %7, align 4, !tbaa !3
  %41 = getelementptr inbounds nuw %struct.SDL_WindowEvent, ptr %3, i32 0, i32 8
  %42 = load i32, ptr %41, align 4, !tbaa !29
  %43 = sitofp i32 %42 to float
  %44 = load ptr, ptr %6, align 8, !tbaa !11
  %45 = getelementptr inbounds nuw %struct.lv_sdl_window_t, ptr %44, i32 0, i32 10
  %46 = load float, ptr %45, align 8, !tbaa !33
  %47 = fdiv float %43, %46
  %48 = fptosi float %47 to i32
  store i32 %48, ptr %8, align 4, !tbaa !3
  %49 = load ptr, ptr %4, align 8, !tbaa !11
  %50 = load i32, ptr %7, align 4, !tbaa !3
  %51 = load i32, ptr %8, align 4, !tbaa !3
  call void @lv_display_set_resolution(ptr noundef %49, i32 noundef %50, i32 noundef %51)
  %52 = load ptr, ptr %6, align 8, !tbaa !11
  %53 = getelementptr inbounds nuw %struct.lv_sdl_window_t, ptr %52, i32 0, i32 11
  store i8 0, ptr %53, align 4, !tbaa !32
  %54 = load ptr, ptr %4, align 8, !tbaa !11
  call void @lv_refr_now(ptr noundef %54)
  br label %58

55:                                               ; preds = %22
  %56 = load ptr, ptr %4, align 8, !tbaa !11
  call void @lv_display_delete(ptr noundef %56)
  br label %58

57:                                               ; preds = %22
  br label %58

58:                                               ; preds = %57, %55, %30, %28
  call void @llvm.lifetime.end.p0(i64 8, ptr %6) #8
  store i32 0, ptr %5, align 4
  br label %59

59:                                               ; preds = %58, %21
  call void @llvm.lifetime.end.p0(i64 8, ptr %4) #8
  %60 = load i32, ptr %5, align 4
  switch i32 %60, label %68 [
    i32 0, label %61
    i32 2, label %9
  ]

61:                                               ; preds = %59
  br label %62

62:                                               ; preds = %61, %12
  %63 = load i32, ptr %3, align 8, !tbaa !29
  %64 = icmp eq i32 %63, 256
  br i1 %64, label %65, label %66

65:                                               ; preds = %62
  call void @SDL_Quit()
  call void @lv_deinit()
  store i8 0, ptr @inited, align 1, !tbaa !7
  call void @exit(i32 noundef 0) #9
  unreachable

66:                                               ; preds = %62
  br label %9, !llvm.loop !30

67:                                               ; preds = %9
  call void @llvm.lifetime.end.p0(i64 56, ptr %3) #8
  ret void

68:                                               ; preds = %59
  unreachable
}