; Function Attrs: nounwind uwtable
define internal void @sdl_event_handler(ptr nocapture readnone %0) #0 {
  %2 = alloca %union.SDL_Event, align 8
  call void @llvm.lifetime.start.p0(i64 56, ptr nonnull %2) #6
  %3 = call i32 @SDL_PollEvent(ptr noundef nonnull %2) #6
  %.not19 = icmp eq i32 %3, 0
  br i1 %.not19, label %._crit_edge, label %.lr.ph

.lr.ph:                                           ; preds = %1
  %4 = getelementptr inbounds nuw i8, ptr %2, i64 8
  %5 = getelementptr inbounds nuw i8, ptr %2, i64 12
  %6 = getelementptr inbounds nuw i8, ptr %2, i64 16
  %7 = getelementptr inbounds nuw i8, ptr %2, i64 20
  br label %8

8:                                                ; preds = %.lr.ph, %.backedge
  call void @lv_sdl_mouse_handler(ptr noundef nonnull %2) #6
  call void @lv_sdl_mousewheel_handler(ptr noundef nonnull %2) #6
  call void @lv_sdl_keyboard_handler(ptr noundef nonnull %2) #6
  %9 = load i32, ptr %2, align 8, !tbaa !26
  switch i32 %9, label %.backedge [
    i32 512, label %10
    i32 256, label %57
  ]

10:                                               ; preds = %8
  %11 = load i32, ptr %4, align 8, !tbaa !26
  %12 = call ptr @lv_display_get_next(ptr noundef null) #6
  %13 = icmp eq i32 %11, -1
  %14 = icmp eq ptr %12, null
  br i1 %13, label %lv_sdl_get_disp_from_win_id.exit, label %.preheader.i

.preheader.i:                                     ; preds = %10
  br i1 %14, label %.backedge, label %.lr.ph.i

.lr.ph.i:                                         ; preds = %.preheader.i, %20
  %.01119.i = phi ptr [ %21, %20 ], [ %12, %.preheader.i ]
  %15 = call ptr @lv_display_get_driver_data(ptr noundef nonnull %.01119.i) #6
  %.not14.i = icmp eq ptr %15, null
  br i1 %.not14.i, label %20, label %16

16:                                               ; preds = %.lr.ph.i
  %17 = load ptr, ptr %15, align 8, !tbaa !22
  %18 = call i32 @SDL_GetWindowID(ptr noundef %17) #6
  %19 = icmp eq i32 %18, %11
  br i1 %19, label %lv_sdl_get_disp_from_win_id.exit.thread15, label %20

20:                                               ; preds = %16, %.lr.ph.i
  %21 = call ptr @lv_display_get_next(ptr noundef nonnull %.01119.i) #6
  %.not.i = icmp eq ptr %21, null
  br i1 %.not.i, label %.backedge, label %.lr.ph.i, !llvm.loop !27

lv_sdl_get_disp_from_win_id.exit:                 ; preds = %10
  br i1 %14, label %.backedge, label %lv_sdl_get_disp_from_win_id.exit.thread15, !llvm.loop !29

lv_sdl_get_disp_from_win_id.exit.thread15:        ; preds = %16, %lv_sdl_get_disp_from_win_id.exit
  %.0.i17 = phi ptr [ %12, %lv_sdl_get_disp_from_win_id.exit ], [ %.01119.i, %16 ]
  %22 = call ptr @lv_display_get_driver_data(ptr noundef nonnull %.0.i17) #6
  %23 = load i8, ptr %5, align 4, !tbaa !26
  switch i8 %23, label %lv_sdl_get_disp_from_win_id.exit.thread [
    i8 15, label %24
    i8 3, label %24
    i8 5, label %41
    i8 14, label %53
  ]

24:                                               ; preds = %lv_sdl_get_disp_from_win_id.exit.thread15, %lv_sdl_get_disp_from_win_id.exit.thread15
  %25 = call ptr @lv_display_get_driver_data(ptr noundef nonnull %.0.i17) #6
  %26 = load i32, ptr %.0.i17, align 8, !tbaa !11
  %27 = call i32 @lv_display_get_color_format(ptr noundef nonnull %.0.i17) #6
  %28 = call i32 @lv_draw_buf_width_to_stride(i32 noundef %26, i32 noundef %27) #6
  %29 = getelementptr inbounds nuw i8, ptr %25, i64 16
  %30 = load ptr, ptr %29, align 8, !tbaa !30
  %31 = getelementptr inbounds nuw i8, ptr %25, i64 40
  %32 = load ptr, ptr %31, align 8, !tbaa !31
  %33 = call i32 @SDL_UpdateTexture(ptr noundef %30, ptr noundef null, ptr noundef %32, i32 noundef %28) #6
  %34 = getelementptr inbounds nuw i8, ptr %25, i64 8
  %35 = load ptr, ptr %34, align 8, !tbaa !23
  %36 = call i32 @SDL_RenderClear(ptr noundef %35) #6
  %37 = load ptr, ptr %34, align 8, !tbaa !23
  %38 = load ptr, ptr %29, align 8, !tbaa !30
  %39 = call i32 @SDL_RenderCopy(ptr noundef %37, ptr noundef %38, ptr noundef null, ptr noundef null) #6
  %40 = load ptr, ptr %34, align 8, !tbaa !23
  call void @SDL_RenderPresent(ptr noundef %40) #6
  br label %lv_sdl_get_disp_from_win_id.exit.thread

41:                                               ; preds = %lv_sdl_get_disp_from_win_id.exit.thread15
  %42 = getelementptr inbounds nuw i8, ptr %22, i64 84
  store i8 1, ptr %42, align 4, !tbaa !32
  %43 = load i32, ptr %6, align 8, !tbaa !26
  %44 = sitofp i32 %43 to float
  %45 = getelementptr inbounds nuw i8, ptr %22, i64 80
  %46 = load float, ptr %45, align 8, !tbaa !7
  %47 = fdiv float %44, %46
  %48 = fptosi float %47 to i32
  %49 = load i32, ptr %7, align 4, !tbaa !26
  %50 = sitofp i32 %49 to float
  %51 = fdiv float %50, %46
  %52 = fptosi float %51 to i32
  call void @lv_display_set_resolution(ptr noundef nonnull %.0.i17, i32 noundef %48, i32 noundef %52) #6
  store i8 0, ptr %42, align 4, !tbaa !32
  call void @lv_refr_now(ptr noundef nonnull %.0.i17) #6
  br label %lv_sdl_get_disp_from_win_id.exit.thread

53:                                               ; preds = %lv_sdl_get_disp_from_win_id.exit.thread15
  call void @lv_display_delete(ptr noundef nonnull %.0.i17) #6
  br label %lv_sdl_get_disp_from_win_id.exit.thread

lv_sdl_get_disp_from_win_id.exit.thread:          ; preds = %24, %41, %53, %lv_sdl_get_disp_from_win_id.exit.thread15
  %54 = load i32, ptr %2, align 8
  %55 = icmp eq i32 %54, 256
  br i1 %55, label %57, label %.backedge

.backedge:                                        ; preds = %20, %.preheader.i, %lv_sdl_get_disp_from_win_id.exit, %lv_sdl_get_disp_from_win_id.exit.thread, %8
  %56 = call i32 @SDL_PollEvent(ptr noundef nonnull %2) #6
  %.not = icmp eq i32 %56, 0
  br i1 %.not, label %._crit_edge, label %8, !llvm.loop !29

57:                                               ; preds = %8, %lv_sdl_get_disp_from_win_id.exit.thread
  call void @SDL_Quit() #6
  call void @lv_deinit() #6
  store i1 false, ptr @inited, align 1
  call void @exit(i32 noundef 0) #7
  unreachable

._crit_edge:                                      ; preds = %.backedge, %1
  call void @llvm.lifetime.end.p0(i64 56, ptr nonnull %2) #6
  ret void
}